target datalayout = "e-m:e-p270:32:32-p271:32:32-p272:64:64-i64:64-i128:128-f80:128-n8:16:32:64-S128"
target triple = "x86_64-pc-linux-gnu"

%struct.Abc_Frame_t_ = type { ptr, ptr, ptr, ptr, ptr, ptr, ptr, ptr, ptr, ptr, i32, i32, i32, i32, i32, ptr, float, float, i32, i32, ptr, ptr, ptr, double, double, ptr, ptr, ptr, ptr, ptr, ptr, ptr, ptr, ptr, ptr, ptr, ptr, float, ptr, i32, ptr, ptr, ptr, ptr, ptr, i32, i32, i32, i32, i32, i32, ptr, ptr, ptr, ptr, ptr, ptr, i32, i32, ptr, ptr, ptr, ptr, ptr, ptr, ptr, ptr, ptr, ptr, ptr, ptr, ptr, ptr, ptr, ptr, ptr, ptr, ptr, ptr, ptr, ptr, ptr, ptr, ptr, ptr, ptr, ptr, ptr, ptr }

@s_GlobalFrame = internal global ptr null, align 8

; Function Attrs: nounwind uwtable
define void @Abc_FrameSetCex(ptr noundef %0) #0 {
  %2 = alloca ptr, align 8
  store ptr %0, ptr %2, align 8, !tbaa !64
  %3 = load ptr, ptr @s_GlobalFrame, align 8, !tbaa !3
  %4 = getelementptr inbounds nuw %struct.Abc_Frame_t_, ptr %3, i32 0, i32 51
  %5 = load ptr, ptr %4, align 8, !tbaa !43
  %6 = icmp ne ptr %5, null
  br i1 %6, label %7, label %13

7:                                                ; preds = %1
  %8 = load ptr, ptr @s_GlobalFrame, align 8, !tbaa !3
  %9 = getelementptr inbounds nuw %struct.Abc_Frame_t_, ptr %8, i32 0, i32 51
  %10 = load ptr, ptr %9, align 8, !tbaa !43
  call void @free(ptr noundef %10) #10
  %11 = load ptr, ptr @s_GlobalFrame, align 8, !tbaa !3
  %12 = getelementptr inbounds nuw %struct.Abc_Frame_t_, ptr %11, i32 0, i32 51
  store ptr null, ptr %12, align 8, !tbaa !43
  br label %14

13:                                               ; preds = %1
  br label %14

14:                                               ; preds = %13, %7
  %15 = load ptr, ptr %2, align 8, !tbaa !64
  %16 = load ptr, ptr @s_GlobalFrame, align 8, !tbaa !3
  %17 = getelementptr inbounds nuw %struct.Abc_Frame_t_, ptr %16, i32 0, i32 51
  store ptr %15, ptr %17, align 8, !tbaa !43
  ret void
}